; Function Attrs: mustprogress uwtable
define void @_ZNK6casadi11FmuFunction11remove_nansEPdPx(ptr noundef nonnull align 8 dereferenceable(1752) %0, ptr nocapture noundef %1, ptr noundef %2) local_unnamed_addr #3 align 2 {
  %4 = getelementptr inbounds i8, ptr %0, i64 1616
  %5 = tail call noundef i64 @_ZNK6casadi8Sparsity5size1Ev(ptr noundef nonnull align 8 dereferenceable(8) %4)
  %6 = tail call noundef ptr @_ZNK6casadi8Sparsity6colindEv(ptr noundef nonnull align 8 dereferenceable(8) %4)
  %7 = tail call noundef ptr @_ZNK6casadi8Sparsity3rowEv(ptr noundef nonnull align 8 dereferenceable(8) %4)
  %.not5.i.i.i = icmp eq i64 %5, 0
  br i1 %.not5.i.i.i, label %_ZSt4fillIPxiEvT_S1_RKT0_.exit, label %.lr.ph.i.i.i.preheader

.lr.ph.i.i.i.preheader:                           ; preds = %3
  %8 = shl i64 %5, 3
  tail call void @llvm.memset.p0.i64(ptr align 8 %2, i8 0, i64 %8, i1 false)
  br label %_ZSt4fillIPxiEvT_S1_RKT0_.exit

_ZSt4fillIPxiEvT_S1_RKT0_.exit:                   ; preds = %.lr.ph.i.i.i.preheader, %3
  %9 = getelementptr inbounds i8, ptr %0, i64 1632
  %10 = tail call noundef i64 @_ZNK6casadi8Sparsity3nnzEv(ptr noundef nonnull align 8 dereferenceable(8) %9)
  %11 = tail call noundef ptr @_ZNK6casadi8Sparsity3rowEv(ptr noundef nonnull align 8 dereferenceable(8) %9)
  %12 = icmp sgt i64 %10, 0
  br i1 %12, label %.lr.ph, label %._crit_edge

.lr.ph:                                           ; preds = %_ZSt4fillIPxiEvT_S1_RKT0_.exit, %.lr.ph
  %.033 = phi i64 [ %16, %.lr.ph ], [ 0, %_ZSt4fillIPxiEvT_S1_RKT0_.exit ]
  %13 = getelementptr inbounds i64, ptr %11, i64 %.033
  %14 = load i64, ptr %13, align 8
  %15 = getelementptr inbounds i64, ptr %2, i64 %14
  store i64 1, ptr %15, align 8
  %16 = add nuw nsw i64 %.033, 1
  %exitcond.not = icmp eq i64 %16, %10
  br i1 %exitcond.not, label %._crit_edge.thread, label %.lr.ph, !llvm.loop !158

._crit_edge:                                      ; preds = %_ZSt4fillIPxiEvT_S1_RKT0_.exit
  %.not.i = icmp eq ptr %2, null
  br i1 %.not.i, label %_ZN6casadi11casadi_copyIxEEvPKT_xPS1_.exit, label %._crit_edge.thread

._crit_edge.thread:                               ; preds = %.lr.ph, %._crit_edge
  %.not15.i = icmp eq ptr %6, null
  %17 = icmp sgt i64 %5, 0
  br i1 %.not15.i, label %.preheader.i, label %.preheader16.i

.preheader16.i:                                   ; preds = %._crit_edge.thread
  br i1 %17, label %.lr.ph.i, label %._crit_edge39

.preheader.i:                                     ; preds = %._crit_edge.thread
  br i1 %17, label %_ZN6casadi11casadi_copyIxEEvPKT_xPS1_.exit.thread42, label %._crit_edge39

_ZN6casadi11casadi_copyIxEEvPKT_xPS1_.exit.thread42: ; preds = %.preheader.i
  %18 = shl nuw i64 %5, 3
  tail call void @llvm.memset.p0.i64(ptr nonnull align 8 %2, i8 0, i64 %18, i1 false)
  br label %.lr.ph38.preheader

.lr.ph.i:                                         ; preds = %.preheader16.i, %.lr.ph.i
  %.020.i = phi i64 [ %22, %.lr.ph.i ], [ 0, %.preheader16.i ]
  %.01019.i = phi ptr [ %21, %.lr.ph.i ], [ %2, %.preheader16.i ]
  %.01218.i = phi ptr [ %19, %.lr.ph.i ], [ %6, %.preheader16.i ]
  %19 = getelementptr inbounds i8, ptr %.01218.i, i64 8
  %20 = load i64, ptr %.01218.i, align 8
  %21 = getelementptr inbounds i8, ptr %.01019.i, i64 8
  store i64 %20, ptr %.01019.i, align 8
  %22 = add nuw nsw i64 %.020.i, 1
  %exitcond.not.i = icmp eq i64 %22, %5
  br i1 %exitcond.not.i, label %_ZN6casadi11casadi_copyIxEEvPKT_xPS1_.exit, label %.lr.ph.i, !llvm.loop !159

_ZN6casadi11casadi_copyIxEEvPKT_xPS1_.exit:       ; preds = %.lr.ph.i, %._crit_edge
  %23 = icmp sgt i64 %5, 0
  br i1 %23, label %.lr.ph38.preheader, label %._crit_edge39

.lr.ph38.preheader:                               ; preds = %_ZN6casadi11casadi_copyIxEEvPKT_xPS1_.exit.thread42, %_ZN6casadi11casadi_copyIxEEvPKT_xPS1_.exit
  %.pre = load i64, ptr %6, align 8
  br label %.lr.ph38

.loopexit:                                        ; preds = %41, %.lr.ph38
  %24 = phi i64 [ %28, %.lr.ph38 ], [ %43, %41 ]
  %exitcond40.not = icmp eq i64 %26, %5
  br i1 %exitcond40.not, label %._crit_edge39, label %.lr.ph38, !llvm.loop !160

.lr.ph38:                                         ; preds = %.lr.ph38.preheader, %.loopexit
  %25 = phi i64 [ %24, %.loopexit ], [ %.pre, %.lr.ph38.preheader ]
  %.03137 = phi i64 [ %26, %.loopexit ], [ 0, %.lr.ph38.preheader ]
  %26 = add nuw nsw i64 %.03137, 1
  %27 = getelementptr inbounds i64, ptr %6, i64 %26
  %28 = load i64, ptr %27, align 8
  %29 = icmp slt i64 %25, %28
  br i1 %29, label %.lr.ph36, label %.loopexit

.lr.ph36:                                         ; preds = %.lr.ph38, %41
  %.03234 = phi i64 [ %42, %41 ], [ %25, %.lr.ph38 ]
  %30 = getelementptr inbounds i64, ptr %7, i64 %.03234
  %31 = load i64, ptr %30, align 8
  %32 = getelementptr inbounds i64, ptr %2, i64 %31
  %33 = load i64, ptr %32, align 8
  %34 = add nsw i64 %33, 1
  store i64 %34, ptr %32, align 8
  %35 = getelementptr inbounds double, ptr %1, i64 %.03234
  %36 = load double, ptr %35, align 8
  %37 = fcmp uno double %36, 0.000000e+00
  br i1 %37, label %38, label %41

38:                                               ; preds = %.lr.ph36
  %39 = getelementptr inbounds double, ptr %1, i64 %33
  %40 = load double, ptr %39, align 8
  store double %40, ptr %35, align 8
  br label %41

41:                                               ; preds = %.lr.ph36, %38
  %42 = add nsw i64 %.03234, 1
  %43 = load i64, ptr %27, align 8
  %44 = icmp slt i64 %42, %43
  br i1 %44, label %.lr.ph36, label %.loopexit, !llvm.loop !161

._crit_edge39:                                    ; preds = %.loopexit, %.preheader.i, %.preheader16.i, %_ZN6casadi11casadi_copyIxEEvPKT_xPS1_.exit
  ret void
}